target datalayout = "e-m:e-p270:32:32-p271:32:32-p272:64:64-i64:64-i128:128-f80:128-n8:16:32:64-S128"
target triple = "x86_64-pc-linux-gnu"

%struct.Vmem = type { ptr, i64, i64 }
%union.SourceSpan = type { i64 }
%struct.Int = type { %struct.Int128_, i32 }
%struct.Int128_ = type { i64, i64 }
%struct.Expr_ = type { ptr, %union.SourceSpan, i16, %union.anon.61 }
%union.anon.61 = type { %struct.ExprAnySwitch }
%struct.ExprAnySwitch = type { i8, %union.anon.63 }
%union.anon.63 = type { %struct.anon.64 }
%struct.anon.64 = type { ptr, %union.SourceSpan, ptr }
%struct.Type_ = type { i32, ptr, ptr, ptr, %union.anon.86, ptr, ptr, %union.anon.88 }
%union.anon.86 = type { ptr }
%union.anon.88 = type { %struct.TypeFunction }
%struct.TypeFunction = type { ptr, ptr, ptr }
%struct.ExprConst = type { i16, %union.anon.70 }
%union.anon.70 = type { %struct.Int }
%struct.ExprBinary = type { i32, i32, i8 }
%struct.Float = type { double, i32 }

@type_bool = external global ptr, align 8
@.str.33 = private unnamed_addr constant [36 x i8] c"FATAL ERROR %s -> in %s @ in %s:%d \00", align 1
@.str.34 = private unnamed_addr constant [22 x i8] c"Should be unreachable\00", align 1
@.str.35 = private unnamed_addr constant [110 x i8] c"generated/home/dtcxzyw/WorkSpace/Projects/compilers/llvm-opt-benchmark/bench/c3c/c3c/src/compiler/sema_expr.c\00", align 1
@expr_arena = external global %struct.Vmem, align 8
@.str.207 = private unnamed_addr constant [41 x i8] c"It is not possible to multiply %s by %s.\00", align 1
@__func__.sema_expr_analyse_mult = private unnamed_addr constant [23 x i8] c"sema_expr_analyse_mult\00", align 1
@__func__.sema_constant_fold_ops = private unnamed_addr constant [23 x i8] c"sema_constant_fold_ops\00", align 1

; Function Attrs: nounwind uwtable
define internal ptr @exprptr(i32 noundef %0) #0 {
  %2 = alloca i32, align 4
  store i32 %0, ptr %2, align 4
  %3 = load ptr, ptr @expr_arena, align 8
  %4 = load i32, ptr %2, align 4
  %5 = zext i32 %4 to i64
  %6 = getelementptr inbounds %struct.Expr_, ptr %3, i64 %5
  ret ptr %6
}

; Function Attrs: nounwind uwtable
define internal zeroext i1 @sema_constant_fold_ops(ptr noundef %0) #0 {
  %2 = alloca ptr, align 8
  %3 = alloca i1, align 1
  %4 = alloca ptr, align 8
  store ptr %0, ptr %4, align 8
  %5 = load ptr, ptr %4, align 8
  store ptr %5, ptr %2, align 8
  %6 = load ptr, ptr %2, align 8
  %7 = getelementptr inbounds %struct.Expr_, ptr %6, i32 0, i32 2
  %8 = load i16, ptr %7, align 8
  %9 = and i16 %8, 255
  %10 = zext i16 %9 to i32
  %11 = icmp eq i32 %10, 14
  br i1 %11, label %13, label %12

12:                                               ; preds = %1
  store i1 false, ptr %3, align 1
  br label %23

13:                                               ; preds = %1
  %14 = load ptr, ptr %4, align 8
  %15 = getelementptr inbounds %struct.Expr_, ptr %14, i32 0, i32 3
  %16 = load i16, ptr %15, align 8
  %17 = and i16 %16, 255
  %18 = zext i16 %17 to i32
  switch i32 %18, label %21 [
    i32 1, label %19
    i32 0, label %19
    i32 2, label %19
    i32 3, label %19
    i32 4, label %19
    i32 6, label %19
    i32 7, label %19
    i32 8, label %19
    i32 5, label %19
    i32 11, label %19
    i32 9, label %20
    i32 10, label %20
  ]

19:                                               ; preds = %13, %13, %13, %13, %13, %13, %13, %13, %13, %13
  store i1 true, ptr %3, align 1
  br label %23

20:                                               ; preds = %13, %13
  store i1 false, ptr %3, align 1
  br label %23

21:                                               ; preds = %13
  br label %22

22:                                               ; preds = %21
  call void (ptr, ...) @error_exit(ptr noundef @.str.33, ptr noundef @.str.34, ptr noundef @__func__.sema_constant_fold_ops, ptr noundef @.str.35, i32 noundef 224) #6
  unreachable

23:                                               ; preds = %20, %19, %12
  %24 = load i1, ptr %3, align 1
  ret i1 %24
}

; Function Attrs: nounwind uwtable
define internal zeroext i1 @expr_both_const(ptr noundef %0, ptr noundef %1) #0 {
  %3 = alloca ptr, align 8
  %4 = alloca ptr, align 8
  %5 = alloca ptr, align 8
  %6 = alloca ptr, align 8
  store ptr %0, ptr %5, align 8
  store ptr %1, ptr %6, align 8
  %7 = load ptr, ptr %5, align 8
  store ptr %7, ptr %3, align 8
  %8 = load ptr, ptr %3, align 8
  %9 = getelementptr inbounds %struct.Expr_, ptr %8, i32 0, i32 2
  %10 = load i16, ptr %9, align 8
  %11 = and i16 %10, 255
  %12 = zext i16 %11 to i32
  %13 = icmp eq i32 %12, 14
  br i1 %13, label %14, label %22

14:                                               ; preds = %2
  %15 = load ptr, ptr %6, align 8
  store ptr %15, ptr %4, align 8
  %16 = load ptr, ptr %4, align 8
  %17 = getelementptr inbounds %struct.Expr_, ptr %16, i32 0, i32 2
  %18 = load i16, ptr %17, align 8
  %19 = and i16 %18, 255
  %20 = zext i16 %19 to i32
  %21 = icmp eq i32 %20, 14
  br label %22

22:                                               ; preds = %14, %2
  %23 = phi i1 [ false, %2 ], [ %21, %14 ]
  ret i1 %23
}

; Function Attrs: nounwind uwtable
define internal zeroext i1 @sema_binary_analyse_arithmetic_subexpr(ptr noundef %0, ptr noundef %1, ptr noundef %2, i1 noundef zeroext %3) #0 {
  %5 = alloca ptr, align 8
  %6 = alloca ptr, align 8
  %7 = alloca ptr, align 8
  %8 = alloca ptr, align 8
  %9 = alloca i1, align 1
  %10 = alloca ptr, align 8
  %11 = alloca ptr, align 8
  %12 = alloca ptr, align 8
  %13 = alloca i8, align 1
  %14 = alloca ptr, align 8
  %15 = alloca ptr, align 8
  %16 = alloca ptr, align 8
  %17 = alloca ptr, align 8
  store ptr %0, ptr %10, align 8
  store ptr %1, ptr %11, align 8
  store ptr %2, ptr %12, align 8
  %18 = zext i1 %3 to i8
  store i8 %18, ptr %13, align 1
  %19 = load ptr, ptr %11, align 8
  %20 = getelementptr inbounds %struct.Expr_, ptr %19, i32 0, i32 3
  %21 = getelementptr inbounds %struct.ExprBinary, ptr %20, i32 0, i32 0
  %22 = load i32, ptr %21, align 8
  %23 = call ptr @exprptr(i32 noundef %22)
  store ptr %23, ptr %14, align 8
  %24 = load ptr, ptr %11, align 8
  %25 = getelementptr inbounds %struct.Expr_, ptr %24, i32 0, i32 3
  %26 = getelementptr inbounds %struct.ExprBinary, ptr %25, i32 0, i32 1
  %27 = load i32, ptr %26, align 4
  %28 = call ptr @exprptr(i32 noundef %27)
  store ptr %28, ptr %15, align 8
  %29 = load ptr, ptr %10, align 8
  %30 = load ptr, ptr %11, align 8
  %31 = load ptr, ptr %14, align 8
  %32 = load ptr, ptr %15, align 8
  %33 = call zeroext i1 @sema_binary_analyse_subexpr(ptr noundef %29, ptr noundef %30, ptr noundef %31, ptr noundef %32)
  br i1 %33, label %35, label %34

34:                                               ; preds = %4
  store i1 false, ptr %9, align 1
  br label %109

35:                                               ; preds = %4
  %36 = load ptr, ptr %14, align 8
  %37 = getelementptr inbounds %struct.Expr_, ptr %36, i32 0, i32 0
  %38 = load ptr, ptr %37, align 8
  store ptr %38, ptr %6, align 8
  %39 = load ptr, ptr %6, align 8
  %40 = icmp ne ptr %39, null
  br i1 %40, label %42, label %41

41:                                               ; preds = %35
  store ptr null, ptr %5, align 8
  br label %52

42:                                               ; preds = %35
  %43 = load ptr, ptr %6, align 8
  %44 = load i32, ptr %43, align 8
  %45 = icmp eq i32 %44, 40
  br i1 %45, label %46, label %50

46:                                               ; preds = %42
  %47 = load ptr, ptr %6, align 8
  %48 = getelementptr inbounds %struct.Type_, ptr %47, i32 0, i32 7
  %49 = load ptr, ptr %48, align 8
  store ptr %49, ptr %5, align 8
  br label %52

50:                                               ; preds = %42
  %51 = load ptr, ptr %6, align 8
  store ptr %51, ptr %5, align 8
  br label %52

52:                                               ; preds = %50, %46, %41
  %53 = load ptr, ptr %5, align 8
  %54 = getelementptr inbounds %struct.Type_, ptr %53, i32 0, i32 1
  %55 = load ptr, ptr %54, align 8
  store ptr %55, ptr %16, align 8
  %56 = load ptr, ptr %15, align 8
  %57 = getelementptr inbounds %struct.Expr_, ptr %56, i32 0, i32 0
  %58 = load ptr, ptr %57, align 8
  store ptr %58, ptr %8, align 8
  %59 = load ptr, ptr %8, align 8
  %60 = icmp ne ptr %59, null
  br i1 %60, label %62, label %61

61:                                               ; preds = %52
  store ptr null, ptr %7, align 8
  br label %72

62:                                               ; preds = %52
  %63 = load ptr, ptr %8, align 8
  %64 = load i32, ptr %63, align 8
  %65 = icmp eq i32 %64, 40
  br i1 %65, label %66, label %70

66:                                               ; preds = %62
  %67 = load ptr, ptr %8, align 8
  %68 = getelementptr inbounds %struct.Type_, ptr %67, i32 0, i32 7
  %69 = load ptr, ptr %68, align 8
  store ptr %69, ptr %7, align 8
  br label %72

70:                                               ; preds = %62
  %71 = load ptr, ptr %8, align 8
  store ptr %71, ptr %7, align 8
  br label %72

72:                                               ; preds = %70, %66, %61
  %73 = load ptr, ptr %7, align 8
  %74 = getelementptr inbounds %struct.Type_, ptr %73, i32 0, i32 1
  %75 = load ptr, ptr %74, align 8
  store ptr %75, ptr %17, align 8
  %76 = load i8, ptr %13, align 1
  %77 = trunc i8 %76 to i1
  br i1 %77, label %78, label %98

78:                                               ; preds = %72
  %79 = load ptr, ptr %16, align 8
  %80 = getelementptr inbounds %struct.Type_, ptr %79, i32 0, i32 0
  %81 = load i32, ptr %80, align 8
  %82 = icmp eq i32 %81, 29
  br i1 %82, label %83, label %88

83:                                               ; preds = %78
  %84 = load ptr, ptr %16, align 8
  %85 = load ptr, ptr %17, align 8
  %86 = icmp eq ptr %84, %85
  br i1 %86, label %87, label %88

87:                                               ; preds = %83
  store i1 true, ptr %9, align 1
  br label %109

88:                                               ; preds = %83, %78
  %89 = load ptr, ptr %16, align 8
  %90 = load ptr, ptr @type_bool, align 8
  %91 = icmp eq ptr %89, %90
  br i1 %91, label %92, label %97

92:                                               ; preds = %88
  %93 = load ptr, ptr %17, align 8
  %94 = load ptr, ptr @type_bool, align 8
  %95 = icmp eq ptr %93, %94
  br i1 %95, label %96, label %97

96:                                               ; preds = %92
  store i1 true, ptr %9, align 1
  br label %109

97:                                               ; preds = %92, %88
  br label %98

98:                                               ; preds = %97, %72
  %99 = load ptr, ptr %10, align 8
  %100 = load ptr, ptr %14, align 8
  %101 = load ptr, ptr %15, align 8
  %102 = load ptr, ptr %16, align 8
  %103 = load ptr, ptr %17, align 8
  %104 = load ptr, ptr %11, align 8
  %105 = load ptr, ptr %12, align 8
  %106 = load i8, ptr %13, align 1
  %107 = trunc i8 %106 to i1
  %108 = call zeroext i1 @sema_binary_arithmetic_promotion(ptr noundef %99, ptr noundef %100, ptr noundef %101, ptr noundef %102, ptr noundef %103, ptr noundef %104, ptr noundef %105, i1 noundef zeroext %107)
  store i1 %108, ptr %9, align 1
  br label %109

109:                                              ; preds = %98, %96, %87, %34
  %110 = load i1, ptr %9, align 1
  ret i1 %110
}

; Function Attrs: nounwind uwtable
define internal zeroext i1 @sema_expr_analyse_mult(ptr noundef %0, ptr noundef %1, ptr noundef %2, ptr noundef %3) #0 {
  %5 = alloca ptr, align 8
  %6 = alloca ptr, align 8
  %7 = alloca %union.SourceSpan, align 8
  %8 = alloca ptr, align 8
  %9 = alloca ptr, align 8
  %10 = alloca i8, align 1
  %11 = alloca i1, align 1
  %12 = alloca ptr, align 8
  %13 = alloca i32, align 4
  %14 = alloca i1, align 1
  %15 = alloca ptr, align 8
  %16 = alloca ptr, align 8
  %17 = alloca ptr, align 8
  %18 = alloca ptr, align 8
  %19 = alloca %struct.Int, align 8
  %20 = alloca %struct.Float, align 8
  store ptr %0, ptr %15, align 8
  store ptr %1, ptr %16, align 8
  store ptr %2, ptr %17, align 8
  store ptr %3, ptr %18, align 8
  %21 = load ptr, ptr %15, align 8
  %22 = load ptr, ptr %16, align 8
  %23 = call zeroext i1 @sema_binary_analyse_arithmetic_subexpr(ptr noundef %21, ptr noundef %22, ptr noundef @.str.207, i1 noundef zeroext false)
  br i1 %23, label %25, label %24

24:                                               ; preds = %4
  store i1 false, ptr %14, align 1
  br label %124

25:                                               ; preds = %4
  %26 = load ptr, ptr %17, align 8
  %27 = load ptr, ptr %18, align 8
  %28 = call zeroext i1 @expr_both_const(ptr noundef %26, ptr noundef %27)
  br i1 %28, label %29, label %83

29:                                               ; preds = %25
  %30 = load ptr, ptr %17, align 8
  %31 = call zeroext i1 @sema_constant_fold_ops(ptr noundef %30)
  br i1 %31, label %32, label %83

32:                                               ; preds = %29
  %33 = load ptr, ptr %16, align 8
  %34 = load ptr, ptr %17, align 8
  store ptr %33, ptr %5, align 8
  store ptr %34, ptr %6, align 8
  %35 = load ptr, ptr %5, align 8
  %36 = getelementptr inbounds %struct.Expr_, ptr %35, i32 0, i32 1
  call void @llvm.memcpy.p0.p0.i64(ptr align 8 %7, ptr align 8 %36, i64 8, i1 false)
  %37 = load ptr, ptr %5, align 8
  %38 = load ptr, ptr %6, align 8
  call void @llvm.memcpy.p0.p0.i64(ptr align 8 %37, ptr align 8 %38, i64 56, i1 false)
  %39 = load ptr, ptr %5, align 8
  %40 = getelementptr inbounds %struct.Expr_, ptr %39, i32 0, i32 1
  call void @llvm.memcpy.p0.p0.i64(ptr align 8 %40, ptr align 8 %7, i64 8, i1 false)
  %41 = load ptr, ptr %17, align 8
  %42 = getelementptr inbounds %struct.Expr_, ptr %41, i32 0, i32 3
  %43 = load i16, ptr %42, align 8
  %44 = and i16 %43, 255
  %45 = zext i16 %44 to i32
  switch i32 %45, label %79 [
    i32 1, label %46
    i32 0, label %56
  ]

46:                                               ; preds = %32
  %47 = load ptr, ptr %16, align 8
  %48 = getelementptr inbounds %struct.Expr_, ptr %47, i32 0, i32 3
  %49 = getelementptr inbounds %struct.ExprConst, ptr %48, i32 0, i32 1
  %50 = load ptr, ptr %17, align 8
  %51 = getelementptr inbounds %struct.Expr_, ptr %50, i32 0, i32 3
  %52 = getelementptr inbounds %struct.ExprConst, ptr %51, i32 0, i32 1
  %53 = load ptr, ptr %18, align 8
  %54 = getelementptr inbounds %struct.Expr_, ptr %53, i32 0, i32 3
  %55 = getelementptr inbounds %struct.ExprConst, ptr %54, i32 0, i32 1
  call void @int_mul(ptr dead_on_unwind writable sret(%struct.Int) align 8 %19, ptr noundef byval(%struct.Int) align 8 %52, ptr noundef byval(%struct.Int) align 8 %55)
  call void @llvm.memcpy.p0.p0.i64(ptr align 8 %49, ptr align 8 %19, i64 24, i1 false)
  br label %82

56:                                               ; preds = %32
  %57 = load ptr, ptr %16, align 8
  %58 = getelementptr inbounds %struct.Expr_, ptr %57, i32 0, i32 3
  %59 = getelementptr inbounds %struct.ExprConst, ptr %58, i32 0, i32 1
  %60 = load ptr, ptr %17, align 8
  %61 = getelementptr inbounds %struct.Expr_, ptr %60, i32 0, i32 3
  %62 = getelementptr inbounds %struct.ExprConst, ptr %61, i32 0, i32 1
  %63 = load ptr, ptr %18, align 8
  %64 = getelementptr inbounds %struct.Expr_, ptr %63, i32 0, i32 3
  %65 = getelementptr inbounds %struct.ExprConst, ptr %64, i32 0, i32 1
  %66 = getelementptr inbounds { double, i32 }, ptr %62, i32 0, i32 0
  %67 = load double, ptr %66, align 8
  %68 = getelementptr inbounds { double, i32 }, ptr %62, i32 0, i32 1
  %69 = load i32, ptr %68, align 8
  %70 = getelementptr inbounds { double, i32 }, ptr %65, i32 0, i32 0
  %71 = load double, ptr %70, align 8
  %72 = getelementptr inbounds { double, i32 }, ptr %65, i32 0, i32 1
  %73 = load i32, ptr %72, align 8
  %74 = call { double, i32 } @float_mul(double %67, i32 %69, double %71, i32 %73)
  %75 = getelementptr inbounds { double, i32 }, ptr %20, i32 0, i32 0
  %76 = extractvalue { double, i32 } %74, 0
  store double %76, ptr %75, align 8
  %77 = getelementptr inbounds { double, i32 }, ptr %20, i32 0, i32 1
  %78 = extractvalue { double, i32 } %74, 1
  store i32 %78, ptr %77, align 8
  call void @llvm.memcpy.p0.p0.i64(ptr align 8 %59, ptr align 8 %20, i64 16, i1 false)
  br label %82

79:                                               ; preds = %32
  br label %80

80:                                               ; preds = %79
  call void (ptr, ...) @error_exit(ptr noundef @.str.33, ptr noundef @.str.34, ptr noundef @__func__.sema_expr_analyse_mult, ptr noundef @.str.35, i32 noundef 5490) #6
  unreachable

81:                                               ; No predecessors!
  br label %82

82:                                               ; preds = %81, %56, %46
  br label %83

83:                                               ; preds = %82, %29, %25
  %84 = load ptr, ptr %17, align 8
  %85 = getelementptr inbounds %struct.Expr_, ptr %84, i32 0, i32 0
  %86 = load ptr, ptr %85, align 8
  %87 = load ptr, ptr %18, align 8
  %88 = getelementptr inbounds %struct.Expr_, ptr %87, i32 0, i32 0
  %89 = load ptr, ptr %88, align 8
  store ptr %89, ptr %12, align 8
  %90 = load ptr, ptr %12, align 8
  %91 = icmp ne ptr %90, null
  br i1 %91, label %93, label %92

92:                                               ; preds = %83
  store i1 false, ptr %11, align 1
  br label %106

93:                                               ; preds = %83
  %94 = load ptr, ptr %12, align 8
  %95 = load i32, ptr %94, align 8
  store i32 %95, ptr %13, align 4
  %96 = load i32, ptr %13, align 4
  %97 = icmp eq i32 %96, 31
  br i1 %97, label %98, label %103

98:                                               ; preds = %93
  %99 = load ptr, ptr %12, align 8
  %100 = getelementptr inbounds %struct.Type_, ptr %99, i32 0, i32 1
  %101 = load ptr, ptr %100, align 8
  %102 = load i32, ptr %101, align 8
  store i32 %102, ptr %13, align 4
  br label %103

103:                                              ; preds = %98, %93
  %104 = load i32, ptr %13, align 4
  %105 = icmp eq i32 %104, 40
  store i1 %105, ptr %11, align 1
  br label %106

106:                                              ; preds = %103, %92
  %107 = load i1, ptr %11, align 1
  store ptr %86, ptr %9, align 8
  %108 = zext i1 %107 to i8
  store i8 %108, ptr %10, align 1
  %109 = load i8, ptr %10, align 1
  %110 = trunc i8 %109 to i1
  br i1 %110, label %111, label %115

111:                                              ; preds = %106
  %112 = load ptr, ptr %9, align 8
  %113 = load i32, ptr %112, align 8
  %114 = icmp eq i32 %113, 40
  br i1 %114, label %115, label %117

115:                                              ; preds = %111, %106
  %116 = load ptr, ptr %9, align 8
  store ptr %116, ptr %8, align 8
  br label %120

117:                                              ; preds = %111
  %118 = load ptr, ptr %9, align 8
  %119 = call ptr @type_get_optional(ptr noundef %118) #7
  store ptr %119, ptr %8, align 8
  br label %120

120:                                              ; preds = %117, %115
  %121 = load ptr, ptr %8, align 8
  %122 = load ptr, ptr %16, align 8
  %123 = getelementptr inbounds %struct.Expr_, ptr %122, i32 0, i32 0
  store ptr %121, ptr %123, align 8
  store i1 true, ptr %14, align 1
  br label %124

124:                                              ; preds = %120, %24
  %125 = load i1, ptr %14, align 1
  ret i1 %125
}