; Function Attrs: nounwind uwtable
define internal fastcc noundef zeroext i1 @sema_expr_analyse_mult(ptr noundef %0, ptr noundef %1, ptr noundef %2, ptr noundef %3) unnamed_addr #0 {
  %5 = alloca %struct.Int, align 8
  %6 = getelementptr inbounds i8, ptr %1, i64 24
  %7 = load i32, ptr %6, align 8
  %8 = load ptr, ptr @expr_arena, align 8
  %9 = zext i32 %7 to i64
  %10 = getelementptr inbounds %struct.Expr_, ptr %8, i64 %9
  %11 = getelementptr inbounds i8, ptr %1, i64 28
  %12 = load i32, ptr %11, align 4
  %13 = zext i32 %12 to i64
  %14 = getelementptr inbounds %struct.Expr_, ptr %8, i64 %13
  %15 = tail call fastcc zeroext i1 @sema_binary_analyse_subexpr(ptr noundef %0, ptr noundef %10, ptr noundef %14)
  br i1 %15, label %16, label %sema_binary_analyse_arithmetic_subexpr.exit.thread

16:                                               ; preds = %4
  %17 = load ptr, ptr %10, align 8, !nonnull !24, !noundef !24
  %18 = load i32, ptr %17, align 8
  %19 = icmp eq i32 %18, 40
  br i1 %19, label %20, label %23

20:                                               ; preds = %16
  %21 = getelementptr inbounds i8, ptr %17, i64 56
  %22 = load ptr, ptr %21, align 8
  br label %23

23:                                               ; preds = %20, %16
  %.0.i = phi ptr [ %22, %20 ], [ %17, %16 ]
  %24 = getelementptr inbounds i8, ptr %.0.i, i64 8
  %25 = load ptr, ptr %24, align 8
  %26 = load ptr, ptr %14, align 8, !nonnull !24, !noundef !24
  %27 = load i32, ptr %26, align 8
  %28 = icmp eq i32 %27, 40
  br i1 %28, label %29, label %sema_binary_analyse_arithmetic_subexpr.exit

29:                                               ; preds = %23
  %30 = getelementptr inbounds i8, ptr %26, i64 56
  %31 = load ptr, ptr %30, align 8
  br label %sema_binary_analyse_arithmetic_subexpr.exit

sema_binary_analyse_arithmetic_subexpr.exit:      ; preds = %23, %29
  %.032.i = phi ptr [ %31, %29 ], [ %26, %23 ]
  %32 = getelementptr inbounds i8, ptr %.032.i, i64 8
  %33 = load ptr, ptr %32, align 8
  %34 = tail call fastcc zeroext i1 @sema_binary_arithmetic_promotion(ptr noundef %0, ptr noundef nonnull %10, ptr noundef nonnull %14, ptr noundef %25, ptr noundef %33, ptr noundef nonnull %1, ptr noundef nonnull @.str.207, i1 noundef zeroext false)
  br i1 %34, label %35, label %sema_binary_analyse_arithmetic_subexpr.exit.thread

35:                                               ; preds = %sema_binary_analyse_arithmetic_subexpr.exit
  %36 = getelementptr i8, ptr %2, i64 16
  %.val = load i16, ptr %36, align 8
  %37 = and i16 %.val, 255
  %38 = icmp eq i16 %37, 14
  br i1 %38, label %expr_both_const.exit, label %sema_constant_fold_ops.exit

expr_both_const.exit:                             ; preds = %35
  %39 = getelementptr inbounds i8, ptr %3, i64 16
  %40 = load i16, ptr %39, align 8
  %41 = and i16 %40, 255
  %42 = icmp eq i16 %41, 14
  br i1 %42, label %43, label %sema_constant_fold_ops.exit

43:                                               ; preds = %expr_both_const.exit
  %44 = getelementptr inbounds i8, ptr %2, i64 24
  %45 = load i16, ptr %44, align 8
  %trunc.i = trunc i16 %45 to i8
  switch i8 %trunc.i, label %46 [
    i8 1, label %47
    i8 0, label %47
    i8 2, label %47
    i8 3, label %47
    i8 4, label %47
    i8 6, label %47
    i8 7, label %47
    i8 8, label %47
    i8 5, label %47
    i8 11, label %47
    i8 9, label %sema_constant_fold_ops.exit
    i8 10, label %sema_constant_fold_ops.exit
  ]

46:                                               ; preds = %43
  tail call void (ptr, ...) @error_exit(ptr noundef nonnull @.str.33, ptr noundef nonnull @.str.34, ptr noundef nonnull @__func__.sema_constant_fold_ops, ptr noundef nonnull @.str.35, i32 noundef 224) #14
  unreachable

47:                                               ; preds = %43, %43, %43, %43, %43, %43, %43, %43, %43, %43
  %48 = getelementptr inbounds i8, ptr %1, i64 8
  %.sroa.028.0.copyload = load i64, ptr %48, align 8
  tail call void @llvm.memcpy.p0.p0.i64(ptr noundef nonnull align 8 dereferenceable(56) %1, ptr noundef nonnull align 8 dereferenceable(56) %2, i64 56, i1 false)
  store i64 %.sroa.028.0.copyload, ptr %48, align 8
  %49 = load i16, ptr %44, align 8
  %trunc = trunc i16 %49 to i8
  switch i8 %trunc, label %67 [
    i8 1, label %50
    i8 0, label %54
  ]

50:                                               ; preds = %47
  %51 = getelementptr inbounds i8, ptr %1, i64 32
  %52 = getelementptr inbounds i8, ptr %2, i64 32
  %53 = getelementptr inbounds i8, ptr %3, i64 32
  call void @int_mul(ptr dead_on_unwind nonnull writable sret(%struct.Int) align 8 %5, ptr noundef nonnull byval(%struct.Int) align 8 %52, ptr noundef nonnull byval(%struct.Int) align 8 %53) #13
  call void @llvm.memcpy.p0.p0.i64(ptr noundef nonnull align 8 dereferenceable(24) %51, ptr noundef nonnull align 8 dereferenceable(24) %5, i64 24, i1 false)
  br label %sema_constant_fold_ops.exit

54:                                               ; preds = %47
  %55 = getelementptr inbounds i8, ptr %1, i64 32
  %56 = getelementptr inbounds i8, ptr %2, i64 32
  %57 = getelementptr inbounds i8, ptr %3, i64 32
  %58 = load double, ptr %56, align 8
  %59 = getelementptr inbounds i8, ptr %2, i64 40
  %60 = load i32, ptr %59, align 8
  %61 = load double, ptr %57, align 8
  %62 = getelementptr inbounds i8, ptr %3, i64 40
  %63 = load i32, ptr %62, align 8
  %64 = tail call { double, i32 } @float_mul(double %58, i32 %60, double %61, i32 %63) #13
  %65 = extractvalue { double, i32 } %64, 0
  %66 = extractvalue { double, i32 } %64, 1
  store double %65, ptr %55, align 8
  %.sroa.2.0..sroa_idx = getelementptr inbounds i8, ptr %1, i64 40
  store i32 %66, ptr %.sroa.2.0..sroa_idx, align 8
  br label %sema_constant_fold_ops.exit

67:                                               ; preds = %47
  tail call void (ptr, ...) @error_exit(ptr noundef nonnull @.str.33, ptr noundef nonnull @.str.34, ptr noundef nonnull @__func__.sema_expr_analyse_mult, ptr noundef nonnull @.str.35, i32 noundef 5490) #14
  unreachable

sema_constant_fold_ops.exit:                      ; preds = %35, %43, %43, %50, %54, %expr_both_const.exit
  %68 = load ptr, ptr %2, align 8
  %69 = load ptr, ptr %3, align 8
  %.not = icmp eq ptr %69, null
  br i1 %.not, label %.critedge, label %70

70:                                               ; preds = %sema_constant_fold_ops.exit
  %71 = load i32, ptr %69, align 8
  %72 = icmp eq i32 %71, 31
  br i1 %72, label %73, label %77

73:                                               ; preds = %70
  %74 = getelementptr inbounds i8, ptr %69, i64 8
  %75 = load ptr, ptr %74, align 8
  %76 = load i32, ptr %75, align 8
  br label %77

77:                                               ; preds = %73, %70
  %.035 = phi i32 [ %76, %73 ], [ %71, %70 ]
  %78 = icmp eq i32 %.035, 40
  br i1 %78, label %79, label %.critedge

79:                                               ; preds = %77
  %80 = load i32, ptr %68, align 8
  %81 = icmp eq i32 %80, 40
  br i1 %81, label %.critedge, label %82

82:                                               ; preds = %79
  %83 = call ptr @type_get_optional(ptr noundef nonnull %68) #13
  br label %.critedge

.critedge:                                        ; preds = %77, %79, %sema_constant_fold_ops.exit, %82
  %.0 = phi ptr [ %83, %82 ], [ %68, %sema_constant_fold_ops.exit ], [ %68, %79 ], [ %68, %77 ]
  store ptr %.0, ptr %1, align 8
  br label %sema_binary_analyse_arithmetic_subexpr.exit.thread

sema_binary_analyse_arithmetic_subexpr.exit.thread: ; preds = %4, %sema_binary_analyse_arithmetic_subexpr.exit, %.critedge
  %.033.i41 = phi i1 [ false, %sema_binary_analyse_arithmetic_subexpr.exit ], [ true, %.critedge ], [ false, %4 ]
  ret i1 %.033.i41
}